Certificate Request:
    Data:
        Version: 1 (0x0)
        Subject: C=NL, ST=ZH, O=Internet Widgits Pty Ltd, CN=Milo
        Subject Public Key Info:
            Public Key Algorithm: rsaEncryption
                Public-Key: (2048 bit)
                Modulus:
                    00:a8:be:28:06:43:3e:4f:8e:03:cf:79:0c:d4:ba:
                    da:c8:98:14:0a:9b:4d:ae:3a:5d:e6:4d:bc:a2:ef:
                    35:16:87:04:03:31:d0:b4:35:a1:5f:4d:e3:5f:a0:
                    c0:01:e0:e0:ec:b3:2a:47:cd:da:8c:08:eb:5b:d2:
                    12:6a:87:bb:0a:60:2a:2a:7e:8b:4e:c4:f1:e7:54:
                    92:8a:88:ef:90:43:89:ff:91:d8:2d:a8:a4:9d:6c:
                    45:ce:49:ab:46:b6:cf:0b:a6:61:81:26:39:19:08:
                    3c:3f:39:1c:b1:ac:ae:81:57:e5:b2:1e:df:d8:2f:
                    f8:c1:a7:f9:f0:55:69:a9:47:99:b2:71:48:51:fd:
                    15:a6:c4:81:15:b3:94:d4:06:bb:d9:3d:86:b8:a9:
                    30:68:2d:5f:75:fb:5e:86:a2:85:52:83:30:e4:53:
                    c6:b6:05:35:fc:b3:cc:5a:91:59:15:0d:8c:e5:bf:
                    4c:2f:19:46:cc:e7:7a:4b:de:90:0f:9c:bc:6f:ad:
                    76:54:64:c2:31:4b:2a:0e:12:3e:7b:22:1f:cb:47:
                    f1:99:7e:99:c0:aa:1a:64:d6:70:33:f2:06:83:49:
                    67:56:74:76:00:e8:54:bb:44:98:17:63:4d:eb:e7:
                    48:1d:c5:d7:2c:e6:82:d6:6d:56:ff:8a:d7:83:03:
                    25:19
                Exponent: 65537 (0x10001)
        Attributes:
            a0:00
    Signature Algorithm: sha256WithRSAEncryption
         9d:95:36:42:cf:80:b5:dd:8f:b0:0b:5a:93:76:0a:2c:f0:ca:
         3a:03:fd:60:36:2a:e7:5b:1c:af:05:3e:5a:3b:cb:e7:9f:71:
         bc:c1:0b:6b:9d:f1:2a:8b:66:39:e7:aa:45:9c:9b:52:bf:b2:
         a5:26:62:e1:b3:b5:a6:05:0d:a0:23:2b:78:96:43:1f:df:57:
         e6:a3:23:08:1c:e5:e5:24:10:6a:62:34:b0:c8:a8:61:47:16:
         ac:09:9f:da:42:d7:4f:6e:1e:48:93:c1:3f:10:9a:d1:32:c6:
         34:6c:51:c9:39:98:c2:69:f5:e5:fa:27:75:79:35:d4:06:71:
         e0:b9:30:9d:20:41:d5:17:e6:e1:98:ea:14:11:94:23:77:95:
         e3:80:dd:6a:7a:f4:54:fb:06:23:5d:74:14:be:08:2e:66:3e:
         07:5e:5d:f8:ed:d4:07:91:5d:84:1f:5b:2e:bb:0b:72:7d:29:
         74:29:5f:ff:63:6c:d4:25:02:4b:fa:7a:12:a3:ee:a3:97:ef:
         c2:07:c4:92:67:6b:99:32:57:33:77:68:63:f7:e8:a9:95:06:
         b8:b3:d6:8e:ba:84:0b:e7:4d:a7:b6:af:b5:a8:4a:e1:6b:db:
         9a:9f:26:08:0e:82:93:b0:f0:0c:41:98:99:6c:12:86:7c:c1:
         db:94:b4:ff
-----BEGIN CERTIFICATE REQUEST-----
MIICkTCCAXkCAQAwTDELMAkGA1UEBhMCTkwxCzAJBgNVBAgMAlpIMSEwHwYDVQQK
DBhJbnRlcm5ldCBXaWRnaXRzIFB0eSBMdGQxDTALBgNVBAMMBE1pbG8wggEiMA0G
CSqGSIb3DQEBAQUAA4IBDwAwggEKAoIBAQCovigGQz5PjgPPeQzUutrImBQKm02u
Ol3mTbyi7zUWhwQDMdC0NaFfTeNfoMAB4ODssypHzdqMCOtb0hJqh7sKYCoqfotO
xPHnVJKKiO+QQ4n/kdgtqKSdbEXOSatGts8LpmGBJjkZCDw/ORyxrK6BV+WyHt/Y
L/jBp/nwVWmpR5mycUhR/RWmxIEVs5TUBrvZPYa4qTBoLV91+16GooVSgzDkU8a2
BTX8s8xakVkVDYzlv0wvGUbM53pL3pAPnLxvrXZUZMIxSyoOEj57Ih/LR/GZfpnA
qhpk1nAz8gaDSWdWdHYA6FS7RJgXY03r50gdxdcs5oLWbVb/iteDAyUZAgMBAAGg
ADANBgkqhkiG9w0BAQsFAAOCAQEAnZU2Qs+Atd2PsAtak3YKLPDKOgP9YDYq51sc
rwU+WjvL559xvMELa53xKotmOeeqRZybUr+ypSZi4bO1pgUNoCMreJZDH99X5qMj
CBzl5SQQamI0sMioYUcWrAmf2kLXT24eSJPBPxCa0TLGNGxRyTmYwmn15fondXk1
1AZx4LkwnSBB1Rfm4ZjqFBGUI3eV44Ddanr0VPsGI110FL4ILmY+B15d+O3UB5Fd
hB9bLrsLcn0pdClf/2Ns1CUCS/p6EqPuo5fvwgfEkmdrmTJXM3doY/foqZUGuLPW
jrqEC+dNp7avtahK4Wvbmp8mCA6Ck7DwDEGYmWwShnzB25S0/w==
-----END CERTIFICATE REQUEST-----
